; Function Attrs: mustprogress nounwind uwtable
define internal void @_ZN12_GLOBAL__N_117AArch64PassConfig12addPreSched2Ev(ptr noundef nonnull align 8 dereferenceable(134) %0) unnamed_addr #0 align 2 {
  %2 = load i8, ptr getelementptr inbounds (i8, ptr @EnableHomogeneousPrologEpilog, i64 128), align 8
  %3 = trunc i8 %2 to i1
  br i1 %3, label %4, label %6

4:                                                ; preds = %1
  %5 = tail call noundef ptr @_ZN4llvm45createAArch64LowerHomogeneousPrologEpilogPassEv() #21
  tail call void @_ZN4llvm16TargetPassConfig7addPassEPNS_4PassE(ptr noundef nonnull align 8 dereferenceable(134) %0, ptr noundef %5) #21
  br label %6

6:                                                ; preds = %4, %1
  %7 = tail call noundef ptr @_ZN4llvm29createAArch64ExpandPseudoPassEv() #21
  tail call void @_ZN4llvm16TargetPassConfig7addPassEPNS_4PassE(ptr noundef nonnull align 8 dereferenceable(134) %0, ptr noundef %7) #21
  %8 = getelementptr inbounds nuw i8, ptr %0, i64 112
  %9 = load ptr, ptr %8, align 8
  %10 = getelementptr inbounds nuw i8, ptr %9, i64 664
  %11 = load i32, ptr %10, align 8
  %.not = icmp eq i32 %11, 0
  br i1 %.not, label %17, label %12

12:                                               ; preds = %6
  %13 = load i8, ptr getelementptr inbounds (i8, ptr @_ZL18EnableLoadStoreOpt, i64 128), align 8
  %14 = trunc i8 %13 to i1
  br i1 %14, label %15, label %17

15:                                               ; preds = %12
  %16 = tail call noundef ptr @_ZN4llvm38createAArch64LoadStoreOptimizationPassEv() #21
  tail call void @_ZN4llvm16TargetPassConfig7addPassEPNS_4PassE(ptr noundef nonnull align 8 dereferenceable(134) %0, ptr noundef %16) #21
  br label %17

17:                                               ; preds = %12, %15, %6
  %18 = tail call noundef ptr @_ZN4llvm14createKCFIPassEv() #21
  tail call void @_ZN4llvm16TargetPassConfig7addPassEPNS_4PassE(ptr noundef nonnull align 8 dereferenceable(134) %0, ptr noundef %18) #21
  %19 = tail call noundef ptr @_ZN4llvm37createAArch64SpeculationHardeningPassEv() #21
  tail call void @_ZN4llvm16TargetPassConfig7addPassEPNS_4PassE(ptr noundef nonnull align 8 dereferenceable(134) %0, ptr noundef %19) #21
  %20 = load ptr, ptr %8, align 8
  %21 = getelementptr inbounds nuw i8, ptr %20, i64 664
  %22 = load i32, ptr %21, align 8
  %.not1 = icmp eq i32 %22, 0
  br i1 %.not1, label %28, label %23

23:                                               ; preds = %17
  %24 = load i8, ptr getelementptr inbounds (i8, ptr @_ZL19EnableFalkorHWPFFix, i64 128), align 8
  %25 = trunc i8 %24 to i1
  br i1 %25, label %26, label %28

26:                                               ; preds = %23
  %27 = tail call noundef ptr @_ZN4llvm23createFalkorHWPFFixPassEv() #21
  tail call void @_ZN4llvm16TargetPassConfig7addPassEPNS_4PassE(ptr noundef nonnull align 8 dereferenceable(134) %0, ptr noundef %27) #21
  br label %28

28:                                               ; preds = %23, %26, %17
  ret void
}